Certificate:
    Data:
        Version: 3 (0x2)
        Serial Number: 1 (0x1)
    Signature Algorithm: sha256WithRSAEncryption
        Issuer: C=US, ST=CA, L=SanFrancisco, O=Fort-Funston, OU=MyOrganizationalUnit, CN=Fort-Funston CA/name=server/emailAddress=me@myhost.mydomain
        Validity
            Not Before: Aug 13 05:36:07 2015 GMT
            Not After : Aug 10 05:36:07 2025 GMT
        Subject: C=US, ST=CA, L=SanFrancisco, O=Fort-Funston, OU=MyOrganizationalUnit, CN=server/name=server/emailAddress=me@myhost.mydomain
        Subject Public Key Info:
            Public Key Algorithm: rsaEncryption
                Public-Key: (2048 bit)
                Modulus:
                    00:f9:51:2e:41:53:8f:3b:6e:c3:16:61:46:0a:47:
                    a4:a3:ac:3e:07:c8:bc:64:70:86:cc:5c:32:16:7f:
                    8e:c7:16:a4:57:86:36:e0:94:95:d7:c8:6e:0a:26:
                    7a:b1:3c:da:8e:a9:20:6d:c2:f0:33:56:27:30:34:
                    9d:c5:d8:84:db:e5:a6:c3:6d:b0:c6:03:b5:35:e6:
                    fb:ed:fa:f6:a1:0d:5d:c5:4d:c4:ae:8c:2b:85:e2:
                    76:1e:36:c4:6c:a3:01:15:a2:dc:d7:a4:25:9c:88:
                    76:8a:0f:a1:51:a5:6b:a9:5e:01:b4:db:c7:17:e9:
                    c4:8a:0a:90:8b:40:26:4b:2d:d9:d6:f9:38:88:57:
                    ab:d0:74:c2:98:7c:a7:0b:0e:0a:36:f8:66:53:7d:
                    72:84:58:09:11:42:6e:33:e7:a3:ed:8f:2a:d4:4b:
                    eb:de:f0:18:4f:9f:dc:c3:47:69:b3:ff:f4:a7:9d:
                    56:a4:2f:0d:86:c6:be:89:ae:36:09:58:b7:72:4d:
                    a4:22:fd:21:c7:f1:42:b4:11:26:89:87:5b:2d:25:
                    72:b1:21:7c:7c:89:d7:09:d4:3d:57:6d:86:74:86:
                    25:75:d1:11:37:d6:13:a2:c5:00:db:fc:5e:de:6b:
                    d5:b1:31:6b:e2:13:76:09:62:66:34:9d:74:10:17:
                    f4:5d
                Exponent: 65537 (0x10001)
        X509v3 extensions:
            X509v3 Basic Constraints: 
                CA:FALSE
            Netscape Cert Type: 
                SSL Server
            Netscape Comment: 
                Easy-RSA Generated Server Certificate
            X509v3 Subject Key Identifier: 
                16:5C:41:A6:D8:11:FF:F9:6D:42:F9:F1:E6:9A:A8:6B:F4:40:0C:E6
            X509v3 Authority Key Identifier: 
                keyid:40:6D:25:06:B3:36:45:5E:E6:85:F8:B7:40:76:96:5A:B4:CB:B0:80
                DirName:/C=US/ST=CA/L=SanFrancisco/O=Fort-Funston/OU=MyOrganizationalUnit/CN=Fort-Funston CA/name=server/emailAddress=me@myhost.mydomain
                serial:94:54:83:21:00:FD:95:18

            X509v3 Extended Key Usage: 
                TLS Web Server Authentication
            X509v3 Key Usage: 
                Digital Signature, Key Encipherment
    Signature Algorithm: sha256WithRSAEncryption
         0d:a6:7d:87:74:cd:c7:fa:56:63:4b:cc:af:ee:b4:19:73:f6:
         82:97:d6:46:e2:7b:5d:c6:c3:c0:9b:c3:cf:11:a8:9c:09:ee:
         eb:32:e9:46:12:b1:9e:37:6d:e4:a6:6c:78:db:14:14:8b:e9:
         85:28:36:75:89:c2:54:b0:bd:43:71:14:83:fa:83:cc:c9:85:
         65:1b:21:dc:61:0a:3a:f5:8b:df:ba:9a:ae:eb:20:4c:b3:fc:
         73:a1:4f:e0:06:13:c1:61:1c:00:7f:31:ee:d3:db:e5:d5:11:
         31:f9:23:12:c6:2e:98:61:9d:8e:d6:d5:80:17:5d:35:f4:ea:
         be:43:70:a1:94:9e:eb:b6:1a:ba:81:a4:c9:bb:35:47:c9:bd:
         6f:06:b9:50:15:fc:57:38:65:85:f5:43:ac:0c:3b:52:cd:48:
         42:aa:08:2a:81:07:d9:82:40:5c:09:68:5a:97:03:dd:73:76:
         25:79:7f:4e:38:e0:60:81:2b:92:87:10:28:98:05:fe:c5:fc:
         71:e4:e5:43:6e:71:e6:cd:9b:d1:71:53:6d:8a:87:12:38:2f:
         81:df:10:e5:92:24:15:53:70:8b:4c:a7:64:2f:6b:bb:26:23:
         33:bf:49:85:81:08:57:a7:4f:37:ee:49:66:e6:8b:38:dd:e3:
         1b:98:12:32
-----BEGIN CERTIFICATE-----
MIIFZjCCBE6gAwIBAgIBATANBgkqhkiG9w0BAQsFADCBtTELMAkGA1UEBhMCVVMx
CzAJBgNVBAgTAkNBMRUwEwYDVQQHEwxTYW5GcmFuY2lzY28xFTATBgNVBAoTDEZv
cnQtRnVuc3RvbjEdMBsGA1UECxMUTXlPcmdhbml6YXRpb25hbFVuaXQxGDAWBgNV
BAMTD0ZvcnQtRnVuc3RvbiBDQTEPMA0GA1UEKRMGc2VydmVyMSEwHwYJKoZIhvcN
AQkBFhJtZUBteWhvc3QubXlkb21haW4wHhcNMTUwODEzMDUzNjA3WhcNMjUwODEw
MDUzNjA3WjCBrDELMAkGA1UEBhMCVVMxCzAJBgNVBAgTAkNBMRUwEwYDVQQHEwxT
YW5GcmFuY2lzY28xFTATBgNVBAoTDEZvcnQtRnVuc3RvbjEdMBsGA1UECxMUTXlP
cmdhbml6YXRpb25hbFVuaXQxDzANBgNVBAMTBnNlcnZlcjEPMA0GA1UEKRMGc2Vy
dmVyMSEwHwYJKoZIhvcNAQkBFhJtZUBteWhvc3QubXlkb21haW4wggEiMA0GCSqG
SIb3DQEBAQUAA4IBDwAwggEKAoIBAQD5US5BU487bsMWYUYKR6SjrD4HyLxkcIbM
XDIWf47HFqRXhjbglJXXyG4KJnqxPNqOqSBtwvAzVicwNJ3F2ITb5abDbbDGA7U1
5vvt+vahDV3FTcSujCuF4nYeNsRsowEVotzXpCWciHaKD6FRpWupXgG028cX6cSK
CpCLQCZLLdnW+TiIV6vQdMKYfKcLDgo2+GZTfXKEWAkRQm4z56PtjyrUS+ve8BhP
n9zDR2mz//SnnVakLw2Gxr6JrjYJWLdyTaQi/SHH8UK0ESaJh1stJXKxIXx8idcJ
1D1XbYZ0hiV10RE31hOixQDb/F7ea9WxMWviE3YJYmY0nXQQF/RdAgMBAAGjggGG
MIIBgjAJBgNVHRMEAjAAMBEGCWCGSAGG+EIBAQQEAwIGQDA0BglghkgBhvhCAQ0E
JxYlRWFzeS1SU0EgR2VuZXJhdGVkIFNlcnZlciBDZXJ0aWZpY2F0ZTAdBgNVHQ4E
FgQUFlxBptgR//ltQvnx5pqoa/RADOYwgeoGA1UdIwSB4jCB34AUQG0lBrM2RV7m
hfi3QHaWWrTLsIChgbukgbgwgbUxCzAJBgNVBAYTAlVTMQswCQYDVQQIEwJDQTEV
MBMGA1UEBxMMU2FuRnJhbmNpc2NvMRUwEwYDVQQKEwxGb3J0LUZ1bnN0b24xHTAb
BgNVBAsTFE15T3JnYW5pemF0aW9uYWxVbml0MRgwFgYDVQQDEw9Gb3J0LUZ1bnN0
b24gQ0ExDzANBgNVBCkTBnNlcnZlcjEhMB8GCSqGSIb3DQEJARYSbWVAbXlob3N0
Lm15ZG9tYWluggkAlFSDIQD9lRgwEwYDVR0lBAwwCgYIKwYBBQUHAwEwCwYDVR0P
BAQDAgWgMA0GCSqGSIb3DQEBCwUAA4IBAQANpn2HdM3H+lZjS8yv7rQZc/aCl9ZG
4ntdxsPAm8PPEaicCe7rMulGErGeN23kpmx42xQUi+mFKDZ1icJUsL1DcRSD+oPM
yYVlGyHcYQo69Yvfupqu6yBMs/xzoU/gBhPBYRwAfzHu09vl1REx+SMSxi6YYZ2O
1tWAF1019Oq+Q3ChlJ7rthq6gaTJuzVHyb1vBrlQFfxXOGWF9UOsDDtSzUhCqggq
gQfZgkBcCWhalwPdc3YleX9OOOBggSuShxAomAX+xfxx5OVDbnHmzZvRcVNtiocS
OC+B3xDlkiQVU3CLTKdkL2u7JiMzv0mFgQhXp0837klm5os43eMbmBIy
-----END CERTIFICATE-----
