Certificate:
    Data:
        Version: 3 (0x2)
        Serial Number: 1 (0x1)
    Signature Algorithm: sha256WithRSAEncryption
        Issuer: C=US, ST=CA, L=SanFrancisco, O=Fort-Funston, OU=MyOrganizationalUnit, CN=Fort-Funston CA/name=server/emailAddress=me@myhost.mydomain
        Validity
            Not Before: Aug 12 05:58:20 2015 GMT
            Not After : Aug  9 05:58:20 2025 GMT
        Subject: C=US, ST=CA, L=SanFrancisco, O=Fort-Funston, OU=MyOrganizationalUnit, CN=server/name=server/emailAddress=me@myhost.mydomain
        Subject Public Key Info:
            Public Key Algorithm: rsaEncryption
                Public-Key: (2048 bit)
                Modulus:
                    00:97:e5:b8:61:0f:0a:34:f6:57:c6:b9:1c:c2:f7:
                    4d:1e:92:49:9d:bb:5e:00:85:e2:ed:8e:b1:39:2e:
                    29:d1:dd:83:50:75:cd:32:99:c1:55:80:bf:69:54:
                    05:9a:cf:9b:71:62:f1:79:47:2d:70:86:ce:47:0a:
                    2a:b0:65:5f:1b:f1:97:be:9a:72:4d:a4:51:a8:c7:
                    53:00:e4:ff:08:9c:12:c8:93:aa:2a:c0:bb:84:ba:
                    3f:e0:2d:b2:60:04:90:a7:36:54:fc:ba:02:6d:4d:
                    dd:78:2e:9d:9e:e5:7e:66:df:fd:8d:41:9a:26:29:
                    11:7d:77:96:97:98:33:28:94:af:95:0d:2a:95:e3:
                    73:88:ac:8a:20:7b:28:2e:17:6d:37:e3:28:d8:66:
                    8e:af:7c:12:30:62:35:75:43:c7:2e:d3:81:e0:48:
                    8c:6e:23:66:90:be:b1:d0:b5:79:33:b5:a1:37:10:
                    47:13:1e:cf:74:6c:e2:11:c7:15:2f:ca:b6:84:01:
                    f2:66:2e:a4:3a:e8:09:d7:63:61:1d:06:42:54:6f:
                    58:1a:5f:40:13:8a:d8:d8:52:b0:0f:0e:b3:6e:57:
                    b6:10:4b:73:29:2b:81:bd:51:1e:cb:b3:b2:74:99:
                    f2:31:74:2a:17:90:27:7f:d7:3e:5b:3f:f8:3c:75:
                    d3:d3
                Exponent: 65537 (0x10001)
        X509v3 extensions:
            X509v3 Basic Constraints: 
                CA:FALSE
            Netscape Cert Type: 
                SSL Server
            Netscape Comment: 
                Easy-RSA Generated Server Certificate
            X509v3 Subject Key Identifier: 
                5D:67:80:64:06:67:DB:AB:67:55:BD:4F:D9:EE:24:FD:2A:B7:71:3F
            X509v3 Authority Key Identifier: 
                keyid:D2:73:2A:C0:20:D4:99:28:17:41:DE:30:4A:0B:09:36:63:AC:F9:60
                DirName:/C=US/ST=CA/L=SanFrancisco/O=Fort-Funston/OU=MyOrganizationalUnit/CN=Fort-Funston CA/name=server/emailAddress=me@myhost.mydomain
                serial:9C:2D:BD:8E:48:95:BA:F2

            X509v3 Extended Key Usage: 
                TLS Web Server Authentication
            X509v3 Key Usage: 
                Digital Signature, Key Encipherment
    Signature Algorithm: sha256WithRSAEncryption
         dd:19:e8:30:71:04:9b:cf:df:b5:4f:69:de:9f:83:85:de:bb:
         2d:53:24:55:f8:2b:d5:62:44:05:88:d8:d7:25:a5:65:23:c9:
         d4:86:d2:ef:23:e4:a8:bf:4f:e1:20:6e:f0:02:2c:11:78:68:
         aa:08:8b:fb:ba:8b:61:ea:3a:5b:9f:33:17:7a:f5:13:81:07:
         d4:4b:dc:45:35:b9:0e:77:38:1d:b6:de:bc:cb:3b:27:0a:e1:
         c4:c7:88:52:6a:1f:7d:04:91:81:a4:59:ad:20:2c:79:10:a6:
         fa:86:b1:a8:71:e2:ac:bf:d0:f9:f8:32:5f:84:3e:35:8a:2c:
         11:e6:22:94:35:d5:cc:a4:41:80:54:9f:44:fa:4a:4c:81:11:
         d4:90:0b:55:0a:90:19:2a:70:3c:b1:5b:01:89:87:ef:1c:13:
         c1:eb:78:c5:69:70:bd:28:65:d6:56:b5:52:ae:e6:a4:73:ab:
         04:bc:8b:91:1d:a4:a0:c0:d3:48:cb:b7:ad:1c:f3:a0:9e:88:
         45:25:6e:5b:cc:cb:1e:59:e0:ee:de:29:fe:9e:f5:c6:91:d8:
         2c:50:84:ad:39:a1:8b:1b:8d:d8:72:d7:9c:92:f5:32:b9:db:
         9c:fb:51:fa:d5:c9:b2:cb:ee:d7:14:35:f1:db:4b:84:b3:08:
         2c:f3:1d:65
-----BEGIN CERTIFICATE-----
MIIFZjCCBE6gAwIBAgIBATANBgkqhkiG9w0BAQsFADCBtTELMAkGA1UEBhMCVVMx
CzAJBgNVBAgTAkNBMRUwEwYDVQQHEwxTYW5GcmFuY2lzY28xFTATBgNVBAoTDEZv
cnQtRnVuc3RvbjEdMBsGA1UECxMUTXlPcmdhbml6YXRpb25hbFVuaXQxGDAWBgNV
BAMTD0ZvcnQtRnVuc3RvbiBDQTEPMA0GA1UEKRMGc2VydmVyMSEwHwYJKoZIhvcN
AQkBFhJtZUBteWhvc3QubXlkb21haW4wHhcNMTUwODEyMDU1ODIwWhcNMjUwODA5
MDU1ODIwWjCBrDELMAkGA1UEBhMCVVMxCzAJBgNVBAgTAkNBMRUwEwYDVQQHEwxT
YW5GcmFuY2lzY28xFTATBgNVBAoTDEZvcnQtRnVuc3RvbjEdMBsGA1UECxMUTXlP
cmdhbml6YXRpb25hbFVuaXQxDzANBgNVBAMTBnNlcnZlcjEPMA0GA1UEKRMGc2Vy
dmVyMSEwHwYJKoZIhvcNAQkBFhJtZUBteWhvc3QubXlkb21haW4wggEiMA0GCSqG
SIb3DQEBAQUAA4IBDwAwggEKAoIBAQCX5bhhDwo09lfGuRzC900ekkmdu14AheLt
jrE5LinR3YNQdc0ymcFVgL9pVAWaz5txYvF5Ry1whs5HCiqwZV8b8Ze+mnJNpFGo
x1MA5P8InBLIk6oqwLuEuj/gLbJgBJCnNlT8ugJtTd14Lp2e5X5m3/2NQZomKRF9
d5aXmDMolK+VDSqV43OIrIogeyguF2034yjYZo6vfBIwYjV1Q8cu04HgSIxuI2aQ
vrHQtXkztaE3EEcTHs90bOIRxxUvyraEAfJmLqQ66AnXY2EdBkJUb1gaX0ATitjY
UrAPDrNuV7YQS3MpK4G9UR7Ls7J0mfIxdCoXkCd/1z5bP/g8ddPTAgMBAAGjggGG
MIIBgjAJBgNVHRMEAjAAMBEGCWCGSAGG+EIBAQQEAwIGQDA0BglghkgBhvhCAQ0E
JxYlRWFzeS1SU0EgR2VuZXJhdGVkIFNlcnZlciBDZXJ0aWZpY2F0ZTAdBgNVHQ4E
FgQUXWeAZAZn26tnVb1P2e4k/Sq3cT8wgeoGA1UdIwSB4jCB34AU0nMqwCDUmSgX
Qd4wSgsJNmOs+WChgbukgbgwgbUxCzAJBgNVBAYTAlVTMQswCQYDVQQIEwJDQTEV
MBMGA1UEBxMMU2FuRnJhbmNpc2NvMRUwEwYDVQQKEwxGb3J0LUZ1bnN0b24xHTAb
BgNVBAsTFE15T3JnYW5pemF0aW9uYWxVbml0MRgwFgYDVQQDEw9Gb3J0LUZ1bnN0
b24gQ0ExDzANBgNVBCkTBnNlcnZlcjEhMB8GCSqGSIb3DQEJARYSbWVAbXlob3N0
Lm15ZG9tYWluggkAnC29jkiVuvIwEwYDVR0lBAwwCgYIKwYBBQUHAwEwCwYDVR0P
BAQDAgWgMA0GCSqGSIb3DQEBCwUAA4IBAQDdGegwcQSbz9+1T2nen4OF3rstUyRV
+CvVYkQFiNjXJaVlI8nUhtLvI+Sov0/hIG7wAiwReGiqCIv7uoth6jpbnzMXevUT
gQfUS9xFNbkOdzgdtt68yzsnCuHEx4hSah99BJGBpFmtICx5EKb6hrGoceKsv9D5
+DJfhD41iiwR5iKUNdXMpEGAVJ9E+kpMgRHUkAtVCpAZKnA8sVsBiYfvHBPB63jF
aXC9KGXWVrVSruakc6sEvIuRHaSgwNNIy7etHPOgnohFJW5bzMseWeDu3in+nvXG
kdgsUIStOaGLG43YcteckvUyuduc+1H61cmyy+7XFDXx20uEswgs8x1l
-----END CERTIFICATE-----
